; Function Attrs: mustprogress nofree nounwind willreturn memory(read, argmem: readwrite, inaccessiblemem: none) uwtable
define internal fastcc range(i32 0, 2) i32 @Prs_ManUtilSkipUntilWord(ptr noundef nonnull captures(none) %0, ptr noundef readonly captures(none) %1) unnamed_addr #12 {
  %3 = getelementptr inbounds nuw i8, ptr %0, i64 24
  %4 = load ptr, ptr %3, align 8
  %5 = tail call ptr @strstr(ptr noundef nonnull dereferenceable(1) %4, ptr noundef nonnull dereferenceable(1) %1) #31
  %6 = icmp eq ptr %5, null
  br i1 %6, label %10, label %7

7:                                                ; preds = %2
  %8 = tail call i64 @strlen(ptr noundef nonnull dereferenceable(1) %1) #31
  %9 = getelementptr inbounds i8, ptr %5, i64 %8
  store ptr %9, ptr %3, align 8
  br label %10

10:                                               ; preds = %2, %7
  %.0 = phi i32 [ 0, %7 ], [ 1, %2 ]
  ret i32 %.0
}